; Function Attrs: mustprogress uwtable
define hidden void @_ZN2bv6solver16internalize_mkbvEP3app(ptr noundef nonnull align 8 dereferenceable(640) %0, ptr noundef %1) local_unnamed_addr #3 align 2 personality ptr @__gxx_personality_v0 {
  %3 = alloca %class.ref_vector, align 8
  call void @llvm.lifetime.start.p0(i64 16, ptr nonnull %3) #25
  %4 = getelementptr inbounds nuw i8, ptr %0, i64 72
  %5 = load ptr, ptr %4, align 8, !tbaa !89
  %6 = ptrtoint ptr %5 to i64
  store i64 %6, ptr %3, align 8, !tbaa !127
  %7 = getelementptr inbounds nuw i8, ptr %3, i64 8
  store ptr null, ptr %7, align 8, !tbaa !139
  %8 = getelementptr inbounds nuw i8, ptr %1, i64 24
  %9 = load i32, ptr %8, align 8, !tbaa !132
  %10 = getelementptr inbounds nuw i8, ptr %1, i64 32
  %.not.i = icmp eq i32 %9, 0
  br i1 %.not.i, label %_ZN15ref_vector_coreI4expr19ref_manager_wrapperIS0_11ast_managerEE6appendEjPKPS0_.exit, label %.lr.ph.i

.lr.ph.i:                                         ; preds = %2
  %wide.trip.count.i = zext i32 %9 to i64
  br label %11

11:                                               ; preds = %_ZN15ref_vector_coreI4expr19ref_manager_wrapperIS0_11ast_managerEE9push_backEPS0_.exit.i, %.lr.ph.i
  %12 = phi ptr [ null, %.lr.ph.i ], [ %27, %_ZN15ref_vector_coreI4expr19ref_manager_wrapperIS0_11ast_managerEE9push_backEPS0_.exit.i ]
  %indvars.iv.i = phi i64 [ 0, %.lr.ph.i ], [ %indvars.iv.next.i, %_ZN15ref_vector_coreI4expr19ref_manager_wrapperIS0_11ast_managerEE9push_backEPS0_.exit.i ]
  %13 = getelementptr inbounds nuw ptr, ptr %10, i64 %indvars.iv.i
  %14 = load ptr, ptr %13, align 8, !tbaa !104
  %.not.i.i.i.i.i = icmp eq ptr %14, null
  br i1 %.not.i.i.i.i.i, label %_ZN15ref_vector_coreI4expr19ref_manager_wrapperIS0_11ast_managerEE7inc_refEPS0_.exit.i.i, label %15

15:                                               ; preds = %11
  %16 = getelementptr inbounds nuw i8, ptr %14, i64 8
  %17 = load i32, ptr %16, align 4, !tbaa !128
  %18 = add i32 %17, 1
  store i32 %18, ptr %16, align 4, !tbaa !128
  br label %_ZN15ref_vector_coreI4expr19ref_manager_wrapperIS0_11ast_managerEE7inc_refEPS0_.exit.i.i

_ZN15ref_vector_coreI4expr19ref_manager_wrapperIS0_11ast_managerEE7inc_refEPS0_.exit.i.i: ; preds = %15, %11
  %19 = icmp eq ptr %12, null
  br i1 %19, label %26, label %20

20:                                               ; preds = %_ZN15ref_vector_coreI4expr19ref_manager_wrapperIS0_11ast_managerEE7inc_refEPS0_.exit.i.i
  %21 = getelementptr inbounds i8, ptr %12, i64 -4
  %22 = load i32, ptr %21, align 4, !tbaa !47
  %23 = getelementptr inbounds i8, ptr %12, i64 -8
  %24 = load i32, ptr %23, align 4, !tbaa !47
  %25 = icmp eq i32 %22, %24
  br i1 %25, label %26, label %_ZN15ref_vector_coreI4expr19ref_manager_wrapperIS0_11ast_managerEE9push_backEPS0_.exit.i

26:                                               ; preds = %20, %_ZN15ref_vector_coreI4expr19ref_manager_wrapperIS0_11ast_managerEE7inc_refEPS0_.exit.i.i
  invoke void @_ZN6vectorIP4exprLb0EjE13expand_vectorEv(ptr noundef nonnull align 8 dereferenceable(8) %7)
          to label %.noexc unwind label %.loopexit

.noexc:                                           ; preds = %26
  %.pre.i.i.i = load ptr, ptr %7, align 8, !tbaa !139
  %.phi.trans.insert.i.i.i = getelementptr inbounds i8, ptr %.pre.i.i.i, i64 -4
  %.pre2.i.i.i = load i32, ptr %.phi.trans.insert.i.i.i, align 4, !tbaa !47
  br label %_ZN15ref_vector_coreI4expr19ref_manager_wrapperIS0_11ast_managerEE9push_backEPS0_.exit.i

_ZN15ref_vector_coreI4expr19ref_manager_wrapperIS0_11ast_managerEE9push_backEPS0_.exit.i: ; preds = %.noexc, %20
  %27 = phi ptr [ %.pre.i.i.i, %.noexc ], [ %12, %20 ]
  %28 = phi i32 [ %.pre2.i.i.i, %.noexc ], [ %22, %20 ]
  %29 = getelementptr inbounds i8, ptr %27, i64 -4
  %30 = zext i32 %28 to i64
  %31 = getelementptr inbounds nuw ptr, ptr %27, i64 %30
  store ptr %14, ptr %31, align 8, !tbaa !104
  %32 = add i32 %28, 1
  store i32 %32, ptr %29, align 4, !tbaa !47
  %indvars.iv.next.i = add nuw nsw i64 %indvars.iv.i, 1
  %exitcond.not.i = icmp eq i64 %indvars.iv.next.i, %wide.trip.count.i
  br i1 %exitcond.not.i, label %_ZN15ref_vector_coreI4expr19ref_manager_wrapperIS0_11ast_managerEE6appendEjPKPS0_.exit, label %11, !llvm.loop !246

_ZN15ref_vector_coreI4expr19ref_manager_wrapperIS0_11ast_managerEE6appendEjPKPS0_.exit: ; preds = %_ZN15ref_vector_coreI4expr19ref_manager_wrapperIS0_11ast_managerEE9push_backEPS0_.exit.i, %2
  invoke void @_ZN2bv6solver9init_bitsEP4exprRK10ref_vectorIS1_11ast_managerE(ptr noundef nonnull align 8 dereferenceable(640) %0, ptr noundef nonnull %1, ptr noundef nonnull align 8 dereferenceable(16) %3)
          to label %33 unwind label %.loopexit.split-lp

33:                                               ; preds = %_ZN15ref_vector_coreI4expr19ref_manager_wrapperIS0_11ast_managerEE6appendEjPKPS0_.exit
  %34 = load ptr, ptr %7, align 8, !tbaa !139
  %35 = icmp eq ptr %34, null
  br i1 %35, label %_ZN15ref_vector_coreI4expr19ref_manager_wrapperIS0_11ast_managerEED2Ev.exit, label %_ZNK6vectorIP4exprLb0EjE4sizeEv.exit.i

_ZNK6vectorIP4exprLb0EjE4sizeEv.exit.i:           ; preds = %33
  %36 = getelementptr inbounds i8, ptr %34, i64 -4
  %37 = load i32, ptr %36, align 4, !tbaa !47
  %38 = zext i32 %37 to i64
  %39 = getelementptr inbounds nuw ptr, ptr %34, i64 %38
  %.not.i5 = icmp eq i32 %37, 0
  br i1 %.not.i5, label %_ZN15ref_vector_coreI4expr19ref_manager_wrapperIS0_11ast_managerEE13dec_range_refEPKPS0_S7_.exit.thread4.i, label %.lr.ph.i.i

.lr.ph.i.i:                                       ; preds = %_ZNK6vectorIP4exprLb0EjE4sizeEv.exit.i, %_ZN15ref_vector_coreI4expr19ref_manager_wrapperIS0_11ast_managerEE7dec_refEPS0_.exit.i.i
  %.06.i.i = phi ptr [ %48, %_ZN15ref_vector_coreI4expr19ref_manager_wrapperIS0_11ast_managerEE7dec_refEPS0_.exit.i.i ], [ %34, %_ZNK6vectorIP4exprLb0EjE4sizeEv.exit.i ]
  %40 = load ptr, ptr %.06.i.i, align 8, !tbaa !104
  %41 = load ptr, ptr %3, align 8, !tbaa !203
  %.not.i.i.i.i.i6 = icmp eq ptr %40, null
  br i1 %.not.i.i.i.i.i6, label %_ZN15ref_vector_coreI4expr19ref_manager_wrapperIS0_11ast_managerEE7dec_refEPS0_.exit.i.i, label %42

42:                                               ; preds = %.lr.ph.i.i
  %43 = getelementptr inbounds nuw i8, ptr %40, i64 8
  %44 = load i32, ptr %43, align 4, !tbaa !128
  %45 = add i32 %44, -1
  store i32 %45, ptr %43, align 4, !tbaa !128
  %46 = icmp eq i32 %45, 0
  br i1 %46, label %47, label %_ZN15ref_vector_coreI4expr19ref_manager_wrapperIS0_11ast_managerEE7dec_refEPS0_.exit.i.i

47:                                               ; preds = %42
  invoke void @_ZN11ast_manager11delete_nodeEP3ast(ptr noundef nonnull align 8 dereferenceable(976) %41, ptr noundef nonnull %40)
          to label %_ZN15ref_vector_coreI4expr19ref_manager_wrapperIS0_11ast_managerEE7dec_refEPS0_.exit.i.i unwind label %55

_ZN15ref_vector_coreI4expr19ref_manager_wrapperIS0_11ast_managerEE7dec_refEPS0_.exit.i.i: ; preds = %47, %42, %.lr.ph.i.i
  %48 = getelementptr inbounds nuw i8, ptr %.06.i.i, i64 8
  %49 = icmp ult ptr %48, %39
  br i1 %49, label %.lr.ph.i.i, label %_ZN15ref_vector_coreI4expr19ref_manager_wrapperIS0_11ast_managerEE13dec_range_refEPKPS0_S7_.exit.i, !llvm.loop !205

_ZN15ref_vector_coreI4expr19ref_manager_wrapperIS0_11ast_managerEE13dec_range_refEPKPS0_S7_.exit.i: ; preds = %_ZN15ref_vector_coreI4expr19ref_manager_wrapperIS0_11ast_managerEE7dec_refEPS0_.exit.i.i
  %.pre.i = load ptr, ptr %7, align 8, !tbaa !139
  %.not.i.i.i = icmp eq ptr %.pre.i, null
  br i1 %.not.i.i.i, label %_ZN15ref_vector_coreI4expr19ref_manager_wrapperIS0_11ast_managerEED2Ev.exit, label %_ZN15ref_vector_coreI4expr19ref_manager_wrapperIS0_11ast_managerEE13dec_range_refEPKPS0_S7_.exit.thread4.i

_ZN15ref_vector_coreI4expr19ref_manager_wrapperIS0_11ast_managerEE13dec_range_refEPKPS0_S7_.exit.thread4.i: ; preds = %_ZN15ref_vector_coreI4expr19ref_manager_wrapperIS0_11ast_managerEE13dec_range_refEPKPS0_S7_.exit.i, %_ZNK6vectorIP4exprLb0EjE4sizeEv.exit.i
  %50 = phi ptr [ %.pre.i, %_ZN15ref_vector_coreI4expr19ref_manager_wrapperIS0_11ast_managerEE13dec_range_refEPKPS0_S7_.exit.i ], [ %34, %_ZNK6vectorIP4exprLb0EjE4sizeEv.exit.i ]
  %51 = getelementptr inbounds i8, ptr %50, i64 -8
  invoke void @_ZN6memory10deallocateEPv(ptr noundef nonnull %51)
          to label %_ZN15ref_vector_coreI4expr19ref_manager_wrapperIS0_11ast_managerEED2Ev.exit unwind label %52

52:                                               ; preds = %_ZN15ref_vector_coreI4expr19ref_manager_wrapperIS0_11ast_managerEE13dec_range_refEPKPS0_S7_.exit.thread4.i
  %53 = landingpad { ptr, i32 }
          catch ptr null
  %54 = extractvalue { ptr, i32 } %53, 0
  call void @__clang_call_terminate(ptr %54) #26
  unreachable

55:                                               ; preds = %47
  %56 = landingpad { ptr, i32 }
          catch ptr null
  %57 = extractvalue { ptr, i32 } %56, 0
  call void @__clang_call_terminate(ptr %57) #26
  unreachable

_ZN15ref_vector_coreI4expr19ref_manager_wrapperIS0_11ast_managerEED2Ev.exit: ; preds = %33, %_ZN15ref_vector_coreI4expr19ref_manager_wrapperIS0_11ast_managerEE13dec_range_refEPKPS0_S7_.exit.i, %_ZN15ref_vector_coreI4expr19ref_manager_wrapperIS0_11ast_managerEE13dec_range_refEPKPS0_S7_.exit.thread4.i
  call void @llvm.lifetime.end.p0(i64 16, ptr nonnull %3) #25
  ret void

.loopexit:                                        ; preds = %26
  %lpad.loopexit = landingpad { ptr, i32 }
          cleanup
  br label %58

.loopexit.split-lp:                               ; preds = %_ZN15ref_vector_coreI4expr19ref_manager_wrapperIS0_11ast_managerEE6appendEjPKPS0_.exit
  %lpad.loopexit.split-lp = landingpad { ptr, i32 }
          cleanup
  br label %58

58:                                               ; preds = %.loopexit.split-lp, %.loopexit
  %lpad.phi = phi { ptr, i32 } [ %lpad.loopexit, %.loopexit ], [ %lpad.loopexit.split-lp, %.loopexit.split-lp ]
  call void @_ZN15ref_vector_coreI4expr19ref_manager_wrapperIS0_11ast_managerEED2Ev(ptr noundef nonnull align 8 dereferenceable(16) %3) #25
  call void @llvm.lifetime.end.p0(i64 16, ptr nonnull %3) #25
  resume { ptr, i32 } %lpad.phi
}